; Function Attrs: mustprogress nofree norecurse nosync nounwind willreturn memory(argmem: readwrite) uwtable
define void @_ZN5folly14StrandExecutorC1ESt10shared_ptrINS_13StrandContextEENS_8Executor9KeepAliveIS4_EE(ptr noundef nonnull writeonly align 8 captures(none) dereferenceable(40) initializes((0, 40)) %0, ptr noundef captures(none) %1, ptr noundef captures(none) %2) unnamed_addr #32 align 2 personality ptr @__gxx_personality_v0 {
  store ptr getelementptr inbounds nuw inrange(-72, 56) (i8, ptr @_ZTVN5folly14StrandExecutorE, i64 72), ptr %0, align 8, !tbaa !17
  %4 = getelementptr inbounds nuw i8, ptr %0, i64 8
  store i64 1, ptr %4, align 8, !tbaa !55
  %5 = getelementptr inbounds nuw i8, ptr %0, i64 16
  %6 = load i64, ptr %2, align 8, !tbaa !25
  store i64 0, ptr %2, align 8, !tbaa !25
  store i64 %6, ptr %5, align 8, !tbaa !22
  %7 = getelementptr inbounds nuw i8, ptr %0, i64 24
  %8 = load ptr, ptr %1, align 8, !tbaa !26
  store ptr %8, ptr %7, align 8, !tbaa !26
  %9 = getelementptr inbounds nuw i8, ptr %0, i64 32
  store ptr null, ptr %9, align 8, !tbaa !7
  %10 = getelementptr inbounds nuw i8, ptr %1, i64 8
  %11 = load ptr, ptr %10, align 8, !tbaa !7
  store ptr null, ptr %10, align 8, !tbaa !7
  store ptr %11, ptr %9, align 8, !tbaa !7
  store ptr null, ptr %1, align 8, !tbaa !26
  ret void
}